target datalayout = "e-m:e-p270:32:32-p271:32:32-p272:64:64-i64:64-i128:128-f80:128-n8:16:32:64-S128"
target triple = "x86_64-pc-linux-gnu"

%"class.pybind11::error_already_set" = type { %"class.std::exception", %"class.std::shared_ptr" }
%"class.std::exception" = type { ptr }
%"class.std::shared_ptr" = type { %"class.std::__shared_ptr" }
%"class.std::__shared_ptr" = type { ptr, %"class.std::__shared_count" }
%"class.std::__shared_count" = type { ptr }
%"class.pybind11::handle" = type { ptr }
%"struct.pybind11::detail::void_type" = type { i8 }

@_ZTIN8pybind1117error_already_setE = linkonce_odr hidden constant { ptr, ptr, ptr } { ptr getelementptr inbounds (ptr, ptr @_ZTVN10__cxxabiv120__si_class_type_infoE, i64 2), ptr @_ZTSN8pybind1117error_already_setE, ptr @_ZTISt9exception }, comdat, align 8
@PyExc_ValueError = external global ptr, align 8
@.str.177 = private unnamed_addr constant [6 x i8] c"inner\00", align 1
@.str.178 = private unnamed_addr constant [6 x i8] c"outer\00", align 1

; Function Attrs: mustprogress nounwind uwtable
define linkonce_odr hidden noundef ptr @_ZNKSt12__shared_ptrIN8pybind116detail25error_fetch_and_normalizeELN9__gnu_cxx12_Lock_policyE2EE3getEv(ptr noundef nonnull align 8 dereferenceable(16) %0) #0 comdat align 2 {
  %2 = alloca ptr, align 8
  store ptr %0, ptr %2, align 8
  %3 = load ptr, ptr %2, align 8
  %4 = getelementptr inbounds %"class.std::__shared_ptr", ptr %3, i32 0, i32 0
  %5 = load ptr, ptr %4, align 8
  ret ptr %5
}

; Function Attrs: mustprogress nounwind uwtable
define linkonce_odr hidden noundef ptr @_ZNKSt19__shared_ptr_accessIN8pybind116detail25error_fetch_and_normalizeELN9__gnu_cxx12_Lock_policyE2ELb0ELb0EE6_M_getEv(ptr noundef nonnull align 1 dereferenceable(1) %0) #0 comdat align 2 {
  %2 = alloca ptr, align 8
  store ptr %0, ptr %2, align 8
  %3 = load ptr, ptr %2, align 8
  %4 = call noundef ptr @_ZNKSt12__shared_ptrIN8pybind116detail25error_fetch_and_normalizeELN9__gnu_cxx12_Lock_policyE2EE3getEv(ptr noundef nonnull align 8 dereferenceable(16) %3) #6
  ret ptr %4
}

; Function Attrs: mustprogress nounwind uwtable
define linkonce_odr hidden noundef ptr @_ZNKSt19__shared_ptr_accessIN8pybind116detail25error_fetch_and_normalizeELN9__gnu_cxx12_Lock_policyE2ELb0ELb0EEptEv(ptr noundef nonnull align 1 dereferenceable(1) %0) #0 comdat align 2 {
  %2 = alloca ptr, align 8
  store ptr %0, ptr %2, align 8
  %3 = load ptr, ptr %2, align 8
  %4 = call noundef ptr @_ZNKSt19__shared_ptr_accessIN8pybind116detail25error_fetch_and_normalizeELN9__gnu_cxx12_Lock_policyE2ELb0ELb0EE6_M_getEv(ptr noundef nonnull align 1 dereferenceable(1) %3) #6
  ret ptr %4
}

; Function Attrs: mustprogress uwtable
define linkonce_odr hidden void @_ZN8pybind1117error_already_set7restoreEv(ptr noundef nonnull align 8 dereferenceable(24) %0) #1 comdat align 2 {
  %2 = alloca ptr, align 8
  store ptr %0, ptr %2, align 8
  %3 = load ptr, ptr %2, align 8
  %4 = getelementptr inbounds %"class.pybind11::error_already_set", ptr %3, i32 0, i32 1
  %5 = call noundef ptr @_ZNKSt19__shared_ptr_accessIN8pybind116detail25error_fetch_and_normalizeELN9__gnu_cxx12_Lock_policyE2ELb0ELb0EEptEv(ptr noundef nonnull align 1 dereferenceable(1) %4) #6
  call void @_ZN8pybind116detail25error_fetch_and_normalize7restoreEv(ptr noundef nonnull align 8 dereferenceable(58) %5)
  ret void
}

; Function Attrs: mustprogress nounwind uwtable
define linkonce_odr hidden noundef ptr @_ZNK8pybind116handle3ptrEv(ptr noundef nonnull align 8 dereferenceable(8) %0) #0 comdat align 2 {
  %2 = alloca ptr, align 8
  store ptr %0, ptr %2, align 8
  %3 = load ptr, ptr %2, align 8
  %4 = getelementptr inbounds %"class.pybind11::handle", ptr %3, i32 0, i32 0
  %5 = load ptr, ptr %4, align 8
  ret ptr %5
}

; Function Attrs: mustprogress uwtable
define linkonce_odr hidden void @_ZN8pybind1110raise_fromERNS_17error_already_setEP7_objectPKc(ptr noundef nonnull align 8 dereferenceable(24) %0, ptr noundef %1, ptr noundef %2) #1 comdat {
  %4 = alloca ptr, align 8
  %5 = alloca ptr, align 8
  %6 = alloca ptr, align 8
  store ptr %0, ptr %4, align 8
  store ptr %1, ptr %5, align 8
  store ptr %2, ptr %6, align 8
  %7 = load ptr, ptr %4, align 8
  call void @_ZN8pybind1117error_already_set7restoreEv(ptr noundef nonnull align 8 dereferenceable(24) %7)
  %8 = load ptr, ptr %5, align 8
  %9 = load ptr, ptr %6, align 8
  call void @_ZN8pybind1110raise_fromEP7_objectPKc(ptr noundef %8, ptr noundef %9)
  ret void
}

; Function Attrs: mustprogress uwtable
define linkonce_odr hidden void @_ZN8pybind119set_errorERKNS_6handleEPKc(ptr noundef nonnull align 8 dereferenceable(8) %0, ptr noundef %1) #1 comdat {
  %3 = alloca ptr, align 8
  %4 = alloca ptr, align 8
  store ptr %0, ptr %3, align 8
  store ptr %1, ptr %4, align 8
  %5 = load ptr, ptr %3, align 8
  %6 = call noundef ptr @_ZNK8pybind116handle3ptrEv(ptr noundef nonnull align 8 dereferenceable(8) %5)
  %7 = load ptr, ptr %4, align 8
  call void @PyErr_SetString(ptr noundef %6, ptr noundef %7)
  ret void
}

; Function Attrs: mustprogress nounwind uwtable
define linkonce_odr hidden void @_ZN8pybind116handleC2IP7_objectTnNSt9enable_ifIXsr6detail25is_pyobj_ptr_or_nullptr_tIT_EE5valueEiE4typeELi0EEES5_(ptr noundef nonnull align 8 dereferenceable(8) %0, ptr noundef %1) unnamed_addr #0 comdat align 2 {
  %3 = alloca ptr, align 8
  %4 = alloca ptr, align 8
  store ptr %0, ptr %3, align 8
  store ptr %1, ptr %4, align 8
  %5 = load ptr, ptr %3, align 8
  %6 = getelementptr inbounds %"class.pybind11::handle", ptr %5, i32 0, i32 0
  %7 = load ptr, ptr %4, align 8
  store ptr %7, ptr %6, align 8
  ret void
}

; Function Attrs: mustprogress uwtable
define internal void @"_ZZ25test_submodule_exceptionsRN8pybind117module_EENK4$_29clEv"(ptr noundef nonnull align 1 dereferenceable(1) %0) #1 align 2 personality ptr @__gxx_personality_v0 {
  %2 = alloca ptr, align 8
  %3 = alloca %"class.pybind11::handle", align 8
  %4 = alloca ptr, align 8
  %5 = alloca i32, align 4
  %6 = alloca ptr, align 8
  store ptr %0, ptr %2, align 8
  %7 = load ptr, ptr @PyExc_ValueError, align 8
  invoke void @_ZN8pybind116handleC2IP7_objectTnNSt9enable_ifIXsr6detail25is_pyobj_ptr_or_nullptr_tIT_EE5valueEiE4typeELi0EEES5_(ptr noundef nonnull align 8 dereferenceable(8) %3, ptr noundef %7)
          to label %8 unwind label %12

8:                                                ; preds = %1
  invoke void @_ZN8pybind119set_errorERKNS_6handleEPKc(ptr noundef nonnull align 8 dereferenceable(8) %3, ptr noundef @.str.177)
          to label %9 unwind label %12

9:                                                ; preds = %8
  %10 = call ptr @__cxa_allocate_exception(i64 24) #6
  invoke void @_ZN8pybind1117error_already_setC2Ev(ptr noundef nonnull align 8 dereferenceable(24) %10)
          to label %11 unwind label %16

11:                                               ; preds = %9
  invoke void @__cxa_throw(ptr %10, ptr @_ZTIN8pybind1117error_already_setE, ptr @_ZN8pybind1117error_already_setD2Ev) #23
          to label %51 unwind label %12

12:                                               ; preds = %11, %8, %1
  %13 = landingpad { ptr, i32 }
          catch ptr @_ZTIN8pybind1117error_already_setE
  %14 = extractvalue { ptr, i32 } %13, 0
  store ptr %14, ptr %4, align 8
  %15 = extractvalue { ptr, i32 } %13, 1
  store i32 %15, ptr %5, align 4
  br label %20

16:                                               ; preds = %9
  %17 = landingpad { ptr, i32 }
          cleanup
          catch ptr @_ZTIN8pybind1117error_already_setE
  %18 = extractvalue { ptr, i32 } %17, 0
  store ptr %18, ptr %4, align 8
  %19 = extractvalue { ptr, i32 } %17, 1
  store i32 %19, ptr %5, align 4
  call void @__cxa_free_exception(ptr %10) #6
  br label %20

20:                                               ; preds = %16, %12
  %21 = load i32, ptr %5, align 4
  %22 = call i32 @llvm.eh.typeid.for(ptr @_ZTIN8pybind1117error_already_setE) #6
  %23 = icmp eq i32 %21, %22
  br i1 %23, label %24, label %43

24:                                               ; preds = %20
  %25 = load ptr, ptr %4, align 8
  %26 = call ptr @__cxa_begin_catch(ptr %25) #6
  store ptr %26, ptr %6, align 8
  %27 = load ptr, ptr %6, align 8
  %28 = load ptr, ptr @PyExc_ValueError, align 8
  invoke void @_ZN8pybind1110raise_fromERNS_17error_already_setEP7_objectPKc(ptr noundef nonnull align 8 dereferenceable(24) %27, ptr noundef %28, ptr noundef @.str.178)
          to label %29 unwind label %32

29:                                               ; preds = %24
  %30 = call ptr @__cxa_allocate_exception(i64 24) #6
  invoke void @_ZN8pybind1117error_already_setC2Ev(ptr noundef nonnull align 8 dereferenceable(24) %30)
          to label %31 unwind label %36

31:                                               ; preds = %29
  invoke void @__cxa_throw(ptr %30, ptr @_ZTIN8pybind1117error_already_setE, ptr @_ZN8pybind1117error_already_setD2Ev) #23
          to label %51 unwind label %32

32:                                               ; preds = %31, %24
  %33 = landingpad { ptr, i32 }
          cleanup
  %34 = extractvalue { ptr, i32 } %33, 0
  store ptr %34, ptr %4, align 8
  %35 = extractvalue { ptr, i32 } %33, 1
  store i32 %35, ptr %5, align 4
  br label %40

36:                                               ; preds = %29
  %37 = landingpad { ptr, i32 }
          cleanup
  %38 = extractvalue { ptr, i32 } %37, 0
  store ptr %38, ptr %4, align 8
  %39 = extractvalue { ptr, i32 } %37, 1
  store i32 %39, ptr %5, align 4
  call void @__cxa_free_exception(ptr %30) #6
  br label %40

40:                                               ; preds = %36, %32
  invoke void @__cxa_end_catch()
          to label %41 unwind label %48

41:                                               ; preds = %40
  br label %43

42:                                               ; No predecessors!
  ret void

43:                                               ; preds = %41, %20
  %44 = load ptr, ptr %4, align 8
  %45 = load i32, ptr %5, align 4
  %46 = insertvalue { ptr, i32 } poison, ptr %44, 0
  %47 = insertvalue { ptr, i32 } %46, i32 %45, 1
  resume { ptr, i32 } %47

48:                                               ; preds = %40
  %49 = landingpad { ptr, i32 }
          catch ptr null
  %50 = extractvalue { ptr, i32 } %49, 0
  call void @__clang_call_terminate(ptr %50) #20
  unreachable

51:                                               ; preds = %31, %11
  unreachable
}

; Function Attrs: mustprogress uwtable
define internal void @"_ZNO8pybind116detail15argument_loaderIJEE9call_implIvRZ25test_submodule_exceptionsRNS_7module_EE4$_29TpTnmJENS0_9void_typeEEET_OT0_St16integer_sequenceImJXspT1_EEEOT2_"(ptr noundef nonnull align 1 dereferenceable(1) %0, ptr noundef nonnull align 1 dereferenceable(1) %1, ptr noundef nonnull align 1 dereferenceable(1) %2) #1 align 2 {
  %4 = alloca ptr, align 8
  %5 = alloca ptr, align 8
  %6 = alloca ptr, align 8
  store ptr %0, ptr %4, align 8
  store ptr %1, ptr %5, align 8
  store ptr %2, ptr %6, align 8
  %7 = load ptr, ptr %5, align 8
  call void @"_ZZ25test_submodule_exceptionsRN8pybind117module_EENK4$_29clEv"(ptr noundef nonnull align 1 dereferenceable(1) %7)
  ret void
}

; Function Attrs: mustprogress uwtable
define internal void @"_ZNO8pybind116detail15argument_loaderIJEE4callIvNS0_9void_typeERZ25test_submodule_exceptionsRNS_7module_EE4$_29EENSt9enable_ifIXsr3std7is_voidIT_EE5valueES4_E4typeEOT1_"(ptr noundef nonnull align 1 dereferenceable(1) %0, ptr noundef nonnull align 1 dereferenceable(1) %1) #1 align 2 {
  %3 = alloca ptr, align 8
  %4 = alloca ptr, align 8
  %5 = alloca %"struct.pybind11::detail::void_type", align 1
  store ptr %0, ptr %3, align 8
  store ptr %1, ptr %4, align 8
  %6 = load ptr, ptr %3, align 8
  %7 = load ptr, ptr %4, align 8
  call void @"_ZNO8pybind116detail15argument_loaderIJEE9call_implIvRZ25test_submodule_exceptionsRNS_7module_EE4$_29TpTnmJENS0_9void_typeEEET_OT0_St16integer_sequenceImJXspT1_EEEOT2_"(ptr noundef nonnull align 1 dereferenceable(1) %6, ptr noundef nonnull align 1 dereferenceable(1) %7, ptr noundef nonnull align 1 dereferenceable(1) %5)
  ret void
}