; Function Attrs: mustprogress noreturn uwtable
define internal fastcc void @"_ZNO8pybind116detail15argument_loaderIJEE4callIvNS0_9void_typeERZ25test_submodule_exceptionsRNS_7module_EE4$_29EENSt9enable_ifIXsr3std7is_voidIT_EE5valueES4_E4typeEOT1_"() unnamed_addr #10 align 2 personality ptr @__gxx_personality_v0 {
  %1 = load ptr, ptr @PyExc_ValueError, align 8
  invoke void @PyErr_SetString(ptr noundef %1, ptr noundef nonnull @.str.177)
          to label %_ZN8pybind119set_errorERKNS_6handleEPKc.exit.i.i unwind label %4

_ZN8pybind119set_errorERKNS_6handleEPKc.exit.i.i: ; preds = %0
  %2 = tail call ptr @__cxa_allocate_exception(i64 24) #25
  invoke void @_ZN8pybind1117error_already_setC2Ev(ptr noundef nonnull align 8 dereferenceable(24) %2)
          to label %3 unwind label %6

3:                                                ; preds = %_ZN8pybind119set_errorERKNS_6handleEPKc.exit.i.i
  invoke void @__cxa_throw(ptr nonnull %2, ptr nonnull @_ZTIN8pybind1117error_already_setE, ptr nonnull @_ZN8pybind1117error_already_setD2Ev) #29
          to label %27 unwind label %4

4:                                                ; preds = %3, %0
  %5 = landingpad { ptr, i32 }
          catch ptr @_ZTIN8pybind1117error_already_setE
  br label %8

6:                                                ; preds = %_ZN8pybind119set_errorERKNS_6handleEPKc.exit.i.i
  %7 = landingpad { ptr, i32 }
          cleanup
          catch ptr @_ZTIN8pybind1117error_already_setE
  tail call void @__cxa_free_exception(ptr %2) #25
  br label %8

8:                                                ; preds = %6, %4
  %.pn.i.i = phi { ptr, i32 } [ %5, %4 ], [ %7, %6 ]
  %.04.i.i = extractvalue { ptr, i32 } %.pn.i.i, 1
  %9 = tail call i32 @llvm.eh.typeid.for(ptr nonnull @_ZTIN8pybind1117error_already_setE) #25
  %10 = icmp eq i32 %.04.i.i, %9
  br i1 %10, label %11, label %23

11:                                               ; preds = %8
  %.0.i.i = extractvalue { ptr, i32 } %.pn.i.i, 0
  %12 = tail call ptr @__cxa_begin_catch(ptr %.0.i.i) #25
  %13 = load ptr, ptr @PyExc_ValueError, align 8
  %14 = getelementptr inbounds i8, ptr %12, i64 8
  %15 = load ptr, ptr %14, align 8
  invoke void @_ZN8pybind116detail25error_fetch_and_normalize7restoreEv(ptr noundef nonnull align 8 dereferenceable(58) %15)
          to label %.noexc.i.i unwind label %18

.noexc.i.i:                                       ; preds = %11
  invoke void @_ZN8pybind1110raise_fromEP7_objectPKc(ptr noundef %13, ptr noundef nonnull @.str.178)
          to label %_ZN8pybind1110raise_fromERNS_17error_already_setEP7_objectPKc.exit.i.i unwind label %18

_ZN8pybind1110raise_fromERNS_17error_already_setEP7_objectPKc.exit.i.i: ; preds = %.noexc.i.i
  %16 = tail call ptr @__cxa_allocate_exception(i64 24) #25
  invoke void @_ZN8pybind1117error_already_setC2Ev(ptr noundef nonnull align 8 dereferenceable(24) %16)
          to label %17 unwind label %20

17:                                               ; preds = %_ZN8pybind1110raise_fromERNS_17error_already_setEP7_objectPKc.exit.i.i
  invoke void @__cxa_throw(ptr nonnull %16, ptr nonnull @_ZTIN8pybind1117error_already_setE, ptr nonnull @_ZN8pybind1117error_already_setD2Ev) #29
          to label %27 unwind label %18

18:                                               ; preds = %17, %.noexc.i.i, %11
  %19 = landingpad { ptr, i32 }
          cleanup
  br label %22

20:                                               ; preds = %_ZN8pybind1110raise_fromERNS_17error_already_setEP7_objectPKc.exit.i.i
  %21 = landingpad { ptr, i32 }
          cleanup
  tail call void @__cxa_free_exception(ptr %16) #25
  br label %22

22:                                               ; preds = %20, %18
  %.pn8.i.i = phi { ptr, i32 } [ %19, %18 ], [ %21, %20 ]
  invoke void @__cxa_end_catch()
          to label %23 unwind label %24

23:                                               ; preds = %22, %8
  %.merged.i.i = phi { ptr, i32 } [ %.pn8.i.i, %22 ], [ %.pn.i.i, %8 ]
  resume { ptr, i32 } %.merged.i.i

24:                                               ; preds = %22
  %25 = landingpad { ptr, i32 }
          catch ptr null
  %26 = extractvalue { ptr, i32 } %25, 0
  tail call void @__clang_call_terminate(ptr %26) #26
  unreachable

27:                                               ; preds = %17, %3
  unreachable
}